; ModuleID = '15/1491.c'
source_filename = "15/1491.c"
target datalayout = "e-m:e-p270:32:32-p271:32:32-p272:64:64-i64:64-f80:128-n8:16:32:64-S128"
target triple = "x86_64-pc-linux-gnu"

@.str = private unnamed_addr constant [3 x i8] c"%d\00", align 1

; Function Attrs: noinline nounwind uwtable
define dso_local i32 @main() #0 {
  %1 = alloca i32, align 4
  %2 = alloca [100 x [100 x i32]], align 16
  %3 = alloca i32, align 4
  %4 = alloca i32, align 4
  %5 = alloca i32, align 4
  %6 = alloca i32, align 4
  %7 = alloca [2 x i32], align 4
  %8 = alloca [2 x i32], align 4
  %9 = alloca i32, align 4
  %10 = alloca i32, align 4
  store i32 0, i32* %1, align 4
  store i32 0, i32* %9, align 4
  store i32 0, i32* %10, align 4
  %11 = call i32 (i8*, ...) @__isoc99_scanf(i8* getelementptr inbounds ([3 x i8], [3 x i8]* @.str, i64 0, i64 0), i32* %6)
  store i32 0, i32* %3, align 4
  br label %12

12:                                               ; preds = %35, %0
  %13 = load i32, i32* %3, align 4
  %14 = load i32, i32* %6, align 4
  %15 = sub nsw i32 %14, 1
  %16 = icmp sle i32 %13, %15
  br i1 %16, label %17, label %38

17:                                               ; preds = %12
  store i32 0, i32* %4, align 4
  br label %18

18:                                               ; preds = %31, %17
  %19 = load i32, i32* %4, align 4
  %20 = load i32, i32* %6, align 4
  %21 = sub nsw i32 %20, 1
  %22 = icmp sle i32 %19, %21
  br i1 %22, label %23, label %34

23:                                               ; preds = %18
  %24 = load i32, i32* %3, align 4
  %25 = sext i32 %24 to i64
  %26 = getelementptr inbounds [100 x [100 x i32]], [100 x [100 x i32]]* %2, i64 0, i64 %25
  %27 = load i32, i32* %4, align 4
  %28 = sext i32 %27 to i64
  %29 = getelementptr inbounds [100 x i32], [100 x i32]* %26, i64 0, i64 %28
  %30 = call i32 (i8*, ...) @__isoc99_scanf(i8* getelementptr inbounds ([3 x i8], [3 x i8]* @.str, i64 0, i64 0), i32* %29)
  br label %31

31:                                               ; preds = %23
  %32 = load i32, i32* %4, align 4
  %33 = add nsw i32 %32, 1
  store i32 %33, i32* %4, align 4
  br label %18

34:                                               ; preds = %18
  br label %35

35:                                               ; preds = %34
  %36 = load i32, i32* %3, align 4
  %37 = add nsw i32 %36, 1
  store i32 %37, i32* %3, align 4
  br label %12

38:                                               ; preds = %12
  store i32 0, i32* %3, align 4
  br label %39

39:                                               ; preds = %77, %38
  %40 = load i32, i32* %3, align 4
  %41 = load i32, i32* %6, align 4
  %42 = sub nsw i32 %41, 1
  %43 = icmp sle i32 %40, %42
  br i1 %43, label %44, label %80

44:                                               ; preds = %39
  store i32 0, i32* %5, align 4
  store i32 0, i32* %4, align 4
  br label %45

45:                                               ; preds = %63, %44
  %46 = load i32, i32* %4, align 4
  %47 = load i32, i32* %6, align 4
  %48 = sub nsw i32 %47, 1
  %49 = icmp sle i32 %46, %48
  br i1 %49, label %50, label %66

50:                                               ; preds = %45
  %51 = load i32, i32* %3, align 4
  %52 = sext i32 %51 to i64
  %53 = getelementptr inbounds [100 x [100 x i32]], [100 x [100 x i32]]* %2, i64 0, i64 %52
  %54 = load i32, i32* %4, align 4
  %55 = sext i32 %54 to i64
  %56 = getelementptr inbounds [100 x i32], [100 x i32]* %53, i64 0, i64 %55
  %57 = load i32, i32* %56, align 4
  %58 = icmp eq i32 %57, 0
  br i1 %58, label %59, label %62

59:                                               ; preds = %50
  %60 = load i32, i32* %5, align 4
  %61 = add nsw i32 %60, 1
  store i32 %61, i32* %5, align 4
  br label %62

62:                                               ; preds = %59, %50
  br label %63

63:                                               ; preds = %62
  %64 = load i32, i32* %4, align 4
  %65 = add nsw i32 %64, 1
  store i32 %65, i32* %4, align 4
  br label %45

66:                                               ; preds = %45
  %67 = load i32, i32* %5, align 4
  %68 = icmp sgt i32 %67, 2
  br i1 %68, label %69, label %76

69:                                               ; preds = %66
  %70 = load i32, i32* %3, align 4
  %71 = load i32, i32* %10, align 4
  %72 = sext i32 %71 to i64
  %73 = getelementptr inbounds [2 x i32], [2 x i32]* %7, i64 0, i64 %72
  store i32 %70, i32* %73, align 4
  %74 = load i32, i32* %10, align 4
  %75 = add nsw i32 %74, 1
  store i32 %75, i32* %10, align 4
  br label %76

76:                                               ; preds = %69, %66
  br label %77

77:                                               ; preds = %76
  %78 = load i32, i32* %3, align 4
  %79 = add nsw i32 %78, 1
  store i32 %79, i32* %3, align 4
  br label %39

80:                                               ; preds = %39
  store i32 0, i32* %3, align 4
  br label %81

81:                                               ; preds = %119, %80
  %82 = load i32, i32* %3, align 4
  %83 = load i32, i32* %6, align 4
  %84 = sub nsw i32 %83, 1
  %85 = icmp sle i32 %82, %84
  br i1 %85, label %86, label %122

86:                                               ; preds = %81
  store i32 0, i32* %5, align 4
  store i32 0, i32* %4, align 4
  br label %87

87:                                               ; preds = %105, %86
  %88 = load i32, i32* %4, align 4
  %89 = load i32, i32* %6, align 4
  %90 = sub nsw i32 %89, 1
  %91 = icmp sle i32 %88, %90
  br i1 %91, label %92, label %108

92:                                               ; preds = %87
  %93 = load i32, i32* %4, align 4
  %94 = sext i32 %93 to i64
  %95 = getelementptr inbounds [100 x [100 x i32]], [100 x [100 x i32]]* %2, i64 0, i64 %94
  %96 = load i32, i32* %3, align 4
  %97 = sext i32 %96 to i64
  %98 = getelementptr inbounds [100 x i32], [100 x i32]* %95, i64 0, i64 %97
  %99 = load i32, i32* %98, align 4
  %100 = icmp eq i32 %99, 0
  br i1 %100, label %101, label %104

101:                                              ; preds = %92
  %102 = load i32, i32* %5, align 4
  %103 = add nsw i32 %102, 1
  store i32 %103, i32* %5, align 4
  br label %104

104:                                              ; preds = %101, %92
  br label %105

105:                                              ; preds = %104
  %106 = load i32, i32* %4, align 4
  %107 = add nsw i32 %106, 1
  store i32 %107, i32* %4, align 4
  br label %87

108:                                              ; preds = %87
  %109 = load i32, i32* %5, align 4
  %110 = icmp sgt i32 %109, 2
  br i1 %110, label %111, label %118

111:                                              ; preds = %108
  %112 = load i32, i32* %3, align 4
  %113 = load i32, i32* %9, align 4
  %114 = sext i32 %113 to i64
  %115 = getelementptr inbounds [2 x i32], [2 x i32]* %8, i64 0, i64 %114
  store i32 %112, i32* %115, align 4
  %116 = load i32, i32* %9, align 4
  %117 = add nsw i32 %116, 1
  store i32 %117, i32* %9, align 4
  br label %118

118:                                              ; preds = %111, %108
  br label %119

119:                                              ; preds = %118
  %120 = load i32, i32* %3, align 4
  %121 = add nsw i32 %120, 1
  store i32 %121, i32* %3, align 4
  br label %81

122:                                              ; preds = %81
  %123 = getelementptr inbounds [2 x i32], [2 x i32]* %7, i64 0, i64 1
  %124 = load i32, i32* %123, align 4
  %125 = getelementptr inbounds [2 x i32], [2 x i32]* %7, i64 0, i64 0
  %126 = load i32, i32* %125, align 4
  %127 = sub nsw i32 %124, %126
  %128 = sub nsw i32 %127, 1
  %129 = getelementptr inbounds [2 x i32], [2 x i32]* %8, i64 0, i64 1
  %130 = load i32, i32* %129, align 4
  %131 = getelementptr inbounds [2 x i32], [2 x i32]* %8, i64 0, i64 0
  %132 = load i32, i32* %131, align 4
  %133 = sub nsw i32 %130, %132
  %134 = sub nsw i32 %133, 1
  %135 = mul nsw i32 %128, %134
  %136 = call i32 (i8*, ...) @printf(i8* getelementptr inbounds ([3 x i8], [3 x i8]* @.str, i64 0, i64 0), i32 %135)
  ret i32 0
}

declare dso_local i32 @__isoc99_scanf(i8*, ...) #1

declare dso_local i32 @printf(i8*, ...) #1


!llvm.module.flags = !{!0}
!llvm.ident = !{!1}

!0 = !{i32 1, !"wchar_size", i32 4}
!1 = !{!"clang version 10.0.0-4ubuntu1 "}
